; ModuleID = '9/1553.c'
source_filename = "9/1553.c"
target datalayout = "e-m:e-p270:32:32-p271:32:32-p272:64:64-i64:64-f80:128-n8:16:32:64-S128"
target triple = "x86_64-pc-linux-gnu"

%struct.oldpeople = type { [20 x i8], i32 }

@.str = private unnamed_addr constant [3 x i8] c"%d\00", align 1
@.str.1 = private unnamed_addr constant [6 x i8] c"%s %d\00", align 1
@old = common dso_local global [100 x %struct.oldpeople] zeroinitializer, align 16
@old60 = common dso_local global [100 x %struct.oldpeople] zeroinitializer, align 16
@cache = common dso_local global %struct.oldpeople zeroinitializer, align 4
@.str.2 = private unnamed_addr constant [4 x i8] c"%s\0A\00", align 1

; Function Attrs: noinline nounwind uwtable
define dso_local i32 @main() #0 {
  %1 = alloca i32, align 4
  %2 = alloca i32, align 4
  %3 = alloca i32, align 4
  %4 = alloca i32, align 4
  %5 = alloca i32, align 4
  store i32 0, i32* %1, align 4
  %6 = call i32 (i8*, ...) @__isoc99_scanf(i8* getelementptr inbounds ([3 x i8], [3 x i8]* @.str, i64 0, i64 0), i32* %2)
  store i32 0, i32* %3, align 4
  br label %7

7:                                                ; preds = %22, %0
  %8 = load i32, i32* %3, align 4
  %9 = load i32, i32* %2, align 4
  %10 = icmp slt i32 %8, %9
  br i1 %10, label %11, label %25

11:                                               ; preds = %7
  %12 = load i32, i32* %3, align 4
  %13 = sext i32 %12 to i64
  %14 = getelementptr inbounds [100 x %struct.oldpeople], [100 x %struct.oldpeople]* @old, i64 0, i64 %13
  %15 = getelementptr inbounds %struct.oldpeople, %struct.oldpeople* %14, i32 0, i32 0
  %16 = getelementptr inbounds [20 x i8], [20 x i8]* %15, i64 0, i64 0
  %17 = load i32, i32* %3, align 4
  %18 = sext i32 %17 to i64
  %19 = getelementptr inbounds [100 x %struct.oldpeople], [100 x %struct.oldpeople]* @old, i64 0, i64 %18
  %20 = getelementptr inbounds %struct.oldpeople, %struct.oldpeople* %19, i32 0, i32 1
  %21 = call i32 (i8*, ...) @__isoc99_scanf(i8* getelementptr inbounds ([6 x i8], [6 x i8]* @.str.1, i64 0, i64 0), i8* %16, i32* %20)
  br label %22

22:                                               ; preds = %11
  %23 = load i32, i32* %3, align 4
  %24 = add nsw i32 %23, 1
  store i32 %24, i32* %3, align 4
  br label %7

25:                                               ; preds = %7
  store i32 0, i32* %4, align 4
  store i32 0, i32* %3, align 4
  br label %26

26:                                               ; preds = %49, %25
  %27 = load i32, i32* %3, align 4
  %28 = load i32, i32* %2, align 4
  %29 = icmp slt i32 %27, %28
  br i1 %29, label %30, label %52

30:                                               ; preds = %26
  %31 = load i32, i32* %3, align 4
  %32 = sext i32 %31 to i64
  %33 = getelementptr inbounds [100 x %struct.oldpeople], [100 x %struct.oldpeople]* @old, i64 0, i64 %32
  %34 = getelementptr inbounds %struct.oldpeople, %struct.oldpeople* %33, i32 0, i32 1
  %35 = load i32, i32* %34, align 4
  %36 = icmp sge i32 %35, 60
  br i1 %36, label %37, label %48

37:                                               ; preds = %30
  %38 = load i32, i32* %4, align 4
  %39 = sext i32 %38 to i64
  %40 = getelementptr inbounds [100 x %struct.oldpeople], [100 x %struct.oldpeople]* @old60, i64 0, i64 %39
  %41 = load i32, i32* %3, align 4
  %42 = sext i32 %41 to i64
  %43 = getelementptr inbounds [100 x %struct.oldpeople], [100 x %struct.oldpeople]* @old, i64 0, i64 %42
  %44 = bitcast %struct.oldpeople* %40 to i8*
  %45 = bitcast %struct.oldpeople* %43 to i8*
  call void @llvm.memcpy.p0i8.p0i8.i64(i8* align 8 %44, i8* align 8 %45, i64 24, i1 false)
  %46 = load i32, i32* %4, align 4
  %47 = add nsw i32 %46, 1
  store i32 %47, i32* %4, align 4
  br label %48

48:                                               ; preds = %37, %30
  br label %49

49:                                               ; preds = %48
  %50 = load i32, i32* %3, align 4
  %51 = add nsw i32 %50, 1
  store i32 %51, i32* %3, align 4
  br label %26

52:                                               ; preds = %26
  store i32 0, i32* %3, align 4
  br label %53

53:                                               ; preds = %101, %52
  %54 = load i32, i32* %3, align 4
  %55 = load i32, i32* %4, align 4
  %56 = icmp slt i32 %54, %55
  br i1 %56, label %57, label %104

57:                                               ; preds = %53
  store i32 0, i32* %5, align 4
  br label %58

58:                                               ; preds = %97, %57
  %59 = load i32, i32* %5, align 4
  %60 = load i32, i32* %4, align 4
  %61 = load i32, i32* %3, align 4
  %62 = sub nsw i32 %60, %61
  %63 = icmp slt i32 %59, %62
  br i1 %63, label %64, label %100

64:                                               ; preds = %58
  %65 = load i32, i32* %5, align 4
  %66 = sext i32 %65 to i64
  %67 = getelementptr inbounds [100 x %struct.oldpeople], [100 x %struct.oldpeople]* @old60, i64 0, i64 %66
  %68 = getelementptr inbounds %struct.oldpeople, %struct.oldpeople* %67, i32 0, i32 1
  %69 = load i32, i32* %68, align 4
  %70 = load i32, i32* %5, align 4
  %71 = add nsw i32 %70, 1
  %72 = sext i32 %71 to i64
  %73 = getelementptr inbounds [100 x %struct.oldpeople], [100 x %struct.oldpeople]* @old60, i64 0, i64 %72
  %74 = getelementptr inbounds %struct.oldpeople, %struct.oldpeople* %73, i32 0, i32 1
  %75 = load i32, i32* %74, align 4
  %76 = icmp slt i32 %69, %75
  br i1 %76, label %77, label %96

77:                                               ; preds = %64
  %78 = load i32, i32* %5, align 4
  %79 = add nsw i32 %78, 1
  %80 = sext i32 %79 to i64
  %81 = getelementptr inbounds [100 x %struct.oldpeople], [100 x %struct.oldpeople]* @old60, i64 0, i64 %80
  %82 = bitcast %struct.oldpeople* %81 to i8*
  call void @llvm.memcpy.p0i8.p0i8.i64(i8* align 4 getelementptr inbounds (%struct.oldpeople, %struct.oldpeople* @cache, i32 0, i32 0, i32 0), i8* align 8 %82, i64 24, i1 false)
  %83 = load i32, i32* %5, align 4
  %84 = add nsw i32 %83, 1
  %85 = sext i32 %84 to i64
  %86 = getelementptr inbounds [100 x %struct.oldpeople], [100 x %struct.oldpeople]* @old60, i64 0, i64 %85
  %87 = load i32, i32* %5, align 4
  %88 = sext i32 %87 to i64
  %89 = getelementptr inbounds [100 x %struct.oldpeople], [100 x %struct.oldpeople]* @old60, i64 0, i64 %88
  %90 = bitcast %struct.oldpeople* %86 to i8*
  %91 = bitcast %struct.oldpeople* %89 to i8*
  call void @llvm.memcpy.p0i8.p0i8.i64(i8* align 8 %90, i8* align 8 %91, i64 24, i1 false)
  %92 = load i32, i32* %5, align 4
  %93 = sext i32 %92 to i64
  %94 = getelementptr inbounds [100 x %struct.oldpeople], [100 x %struct.oldpeople]* @old60, i64 0, i64 %93
  %95 = bitcast %struct.oldpeople* %94 to i8*
  call void @llvm.memcpy.p0i8.p0i8.i64(i8* align 8 %95, i8* align 4 getelementptr inbounds (%struct.oldpeople, %struct.oldpeople* @cache, i32 0, i32 0, i32 0), i64 24, i1 false)
  br label %96

96:                                               ; preds = %77, %64
  br label %97

97:                                               ; preds = %96
  %98 = load i32, i32* %5, align 4
  %99 = add nsw i32 %98, 1
  store i32 %99, i32* %5, align 4
  br label %58

100:                                              ; preds = %58
  br label %101

101:                                              ; preds = %100
  %102 = load i32, i32* %3, align 4
  %103 = add nsw i32 %102, 1
  store i32 %103, i32* %3, align 4
  br label %53

104:                                              ; preds = %53
  store i32 0, i32* %3, align 4
  br label %105

105:                                              ; preds = %116, %104
  %106 = load i32, i32* %3, align 4
  %107 = load i32, i32* %4, align 4
  %108 = icmp slt i32 %106, %107
  br i1 %108, label %109, label %119

109:                                              ; preds = %105
  %110 = load i32, i32* %3, align 4
  %111 = sext i32 %110 to i64
  %112 = getelementptr inbounds [100 x %struct.oldpeople], [100 x %struct.oldpeople]* @old60, i64 0, i64 %111
  %113 = getelementptr inbounds %struct.oldpeople, %struct.oldpeople* %112, i32 0, i32 0
  %114 = getelementptr inbounds [20 x i8], [20 x i8]* %113, i64 0, i64 0
  %115 = call i32 (i8*, ...) @printf(i8* getelementptr inbounds ([4 x i8], [4 x i8]* @.str.2, i64 0, i64 0), i8* %114)
  br label %116

116:                                              ; preds = %109
  %117 = load i32, i32* %3, align 4
  %118 = add nsw i32 %117, 1
  store i32 %118, i32* %3, align 4
  br label %105

119:                                              ; preds = %105
  store i32 0, i32* %3, align 4
  br label %120

120:                                              ; preds = %139, %119
  %121 = load i32, i32* %3, align 4
  %122 = load i32, i32* %2, align 4
  %123 = icmp slt i32 %121, %122
  br i1 %123, label %124, label %142

124:                                              ; preds = %120
  %125 = load i32, i32* %3, align 4
  %126 = sext i32 %125 to i64
  %127 = getelementptr inbounds [100 x %struct.oldpeople], [100 x %struct.oldpeople]* @old, i64 0, i64 %126
  %128 = getelementptr inbounds %struct.oldpeople, %struct.oldpeople* %127, i32 0, i32 1
  %129 = load i32, i32* %128, align 4
  %130 = icmp slt i32 %129, 60
  br i1 %130, label %131, label %138

131:                                              ; preds = %124
  %132 = load i32, i32* %3, align 4
  %133 = sext i32 %132 to i64
  %134 = getelementptr inbounds [100 x %struct.oldpeople], [100 x %struct.oldpeople]* @old, i64 0, i64 %133
  %135 = getelementptr inbounds %struct.oldpeople, %struct.oldpeople* %134, i32 0, i32 0
  %136 = getelementptr inbounds [20 x i8], [20 x i8]* %135, i64 0, i64 0
  %137 = call i32 (i8*, ...) @printf(i8* getelementptr inbounds ([4 x i8], [4 x i8]* @.str.2, i64 0, i64 0), i8* %136)
  br label %138

138:                                              ; preds = %131, %124
  br label %139

139:                                              ; preds = %138
  %140 = load i32, i32* %3, align 4
  %141 = add nsw i32 %140, 1
  store i32 %141, i32* %3, align 4
  br label %120

142:                                              ; preds = %120
  ret i32 0
}

declare dso_local i32 @__isoc99_scanf(i8*, ...) #1

; Function Attrs: argmemonly nounwind willreturn
declare void @llvm.memcpy.p0i8.p0i8.i64(i8* noalias nocapture writeonly, i8* noalias nocapture readonly, i64, i1 immarg) #2

declare dso_local i32 @printf(i8*, ...) #1


!llvm.module.flags = !{!0}
!llvm.ident = !{!1}

!0 = !{i32 1, !"wchar_size", i32 4}
!1 = !{!"clang version 10.0.0-4ubuntu1 "}
